target datalayout = "e-m:e-p270:32:32-p271:32:32-p272:64:64-i64:64-i128:128-f80:128-n8:16:32:64-S128"
target triple = "x86_64-pc-linux-gnu"

%struct.Abc_Frame_t_ = type { ptr, ptr, ptr, ptr, ptr, ptr, ptr, ptr, ptr, ptr, i32, i32, i32, i32, i32, ptr, float, float, i32, i32, ptr, ptr, ptr, double, double, ptr, ptr, ptr, ptr, ptr, ptr, ptr, ptr, ptr, ptr, ptr, ptr, float, ptr, i32, ptr, ptr, ptr, ptr, ptr, i32, i32, i32, i32, i32, i32, ptr, ptr, ptr, ptr, ptr, ptr, i32, i32, ptr, ptr, ptr, ptr, ptr, ptr, ptr, ptr, ptr, ptr, ptr, ptr, ptr, ptr, ptr, ptr, ptr, ptr, ptr, ptr, ptr, ptr, ptr, ptr, ptr, ptr, ptr, ptr, ptr, ptr }
%struct.Cec_ParCec_t_ = type { i32, i32, i32, i32, i32, i32, i32, i32, i32 }
%struct.Cba_Man_t_ = type { ptr, ptr, ptr, ptr, ptr, ptr, %struct.Vec_Int_t_, %struct.Vec_Int_t_, %struct.Vec_Int_t_, %struct.Vec_Int_t_, [90 x ptr], [90 x i32], [90 x i32], i32, %struct.Vec_Ptr_t_, i32, %struct.Vec_Str_t_, %struct.Vec_Str_t_, ptr }
%struct.Vec_Int_t_ = type { i32, i32, ptr }
%struct.Vec_Ptr_t_ = type { i32, i32, ptr }
%struct.Vec_Str_t_ = type { i32, i32, ptr }

@globalUtilOptind = external global i32, align 4
@.str.12 = private unnamed_addr constant [2 x i8] c"r\00", align 1
@.str.13 = private unnamed_addr constant [30 x i8] c"Cannot open input file \22%s\22. \00", align 1
@.str.14 = private unnamed_addr constant [3 x i8] c".v\00", align 1
@.str.15 = private unnamed_addr constant [6 x i8] c".blif\00", align 1
@.str.18 = private unnamed_addr constant [19 x i8] c"Did you mean \22%s\22?\00", align 1
@.str.19 = private unnamed_addr constant [2 x i8] c"\0A\00", align 1
@.str.20 = private unnamed_addr constant [5 x i8] c"blif\00", align 1
@.str.21 = private unnamed_addr constant [2 x i8] c"v\00", align 1
@.str.23 = private unnamed_addr constant [4 x i8] c"cba\00", align 1
@.str.27 = private unnamed_addr constant [4 x i8] c"yes\00", align 1
@.str.28 = private unnamed_addr constant [3 x i8] c"no\00", align 1
@.str.30 = private unnamed_addr constant [62 x i8] c"\09-v     : toggle printing verbose information [default = %s]\0A\00", align 1
@.str.31 = private unnamed_addr constant [35 x i8] c"\09-h     : print the command usage\0A\00", align 1
@.str.83 = private unnamed_addr constant [3 x i8] c"vh\00", align 1
@.str.91 = private unnamed_addr constant [47 x i8] c"Cba_CommandCec(): There is no current design.\0A\00", align 1
@.str.92 = private unnamed_addr constant [45 x i8] c"File name is not given on the command line.\0A\00", align 1
@.str.93 = private unnamed_addr constant [52 x i8] c"Extracting AIG from the current design has failed.\0A\00", align 1
@.str.94 = private unnamed_addr constant [53 x i8] c"Extracting AIG from the original design has failed.\0A\00", align 1
@.str.95 = private unnamed_addr constant [51 x i8] c"The verification miter is written into file \22%s\22.\0A\00", align 1
@.str.96 = private unnamed_addr constant [14 x i8] c"cec_miter.aig\00", align 1
@.str.97 = private unnamed_addr constant [19 x i8] c"usage: :cec [-vh]\0A\00", align 1
@.str.98 = private unnamed_addr constant [46 x i8] c"\09         combinational equivalence checking\0A\00", align 1

; Function Attrs: inlinehint nounwind uwtable
define internal ptr @Cba_AbcGetMan(ptr noundef %0) #2 {
  %2 = alloca ptr, align 8
  store ptr %0, ptr %2, align 8, !tbaa !3
  %3 = load ptr, ptr %2, align 8, !tbaa !3
  %4 = getelementptr inbounds nuw %struct.Abc_Frame_t_, ptr %3, i32 0, i32 75
  %5 = load ptr, ptr %4, align 8, !tbaa !57
  ret ptr %5
}

; Function Attrs: nounwind uwtable
define internal i32 @Cba_CommandCec(ptr noundef %0, i32 noundef %1, ptr noundef %2) #0 {
  %4 = alloca i32, align 4
  %5 = alloca ptr, align 8
  %6 = alloca i32, align 4
  %7 = alloca ptr, align 8
  %8 = alloca ptr, align 8
  %9 = alloca ptr, align 8
  %10 = alloca ptr, align 8
  %11 = alloca ptr, align 8
  %12 = alloca ptr, align 8
  %13 = alloca %struct.Cec_ParCec_t_, align 4
  %14 = alloca ptr, align 8
  %15 = alloca ptr, align 8
  %16 = alloca ptr, align 8
  %17 = alloca ptr, align 8
  %18 = alloca i32, align 4
  %19 = alloca i32, align 4
  %20 = alloca i32, align 4
  %21 = alloca ptr, align 8
  %22 = alloca i32, align 4
  store ptr %0, ptr %5, align 8, !tbaa !3
  store i32 %1, ptr %6, align 4, !tbaa !8
  store ptr %2, ptr %7, align 8, !tbaa !10
  call void @llvm.lifetime.start.p0(i64 8, ptr %8) #14
  %23 = load ptr, ptr %5, align 8, !tbaa !3
  %24 = call ptr @Cba_AbcGetMan(ptr noundef %23)
  store ptr %24, ptr %8, align 8, !tbaa !12
  call void @llvm.lifetime.start.p0(i64 8, ptr %9) #14
  call void @llvm.lifetime.start.p0(i64 8, ptr %10) #14
  call void @llvm.lifetime.start.p0(i64 8, ptr %11) #14
  call void @llvm.lifetime.start.p0(i64 8, ptr %12) #14
  call void @llvm.lifetime.start.p0(i64 36, ptr %13) #14
  call void @llvm.lifetime.start.p0(i64 8, ptr %14) #14
  store ptr %13, ptr %14, align 8, !tbaa !42
  call void @llvm.lifetime.start.p0(i64 8, ptr %15) #14
  call void @llvm.lifetime.start.p0(i64 8, ptr %16) #14
  call void @llvm.lifetime.start.p0(i64 8, ptr %17) #14
  call void @llvm.lifetime.start.p0(i64 4, ptr %18) #14
  call void @llvm.lifetime.start.p0(i64 4, ptr %19) #14
  call void @llvm.lifetime.start.p0(i64 4, ptr %20) #14
  store i32 0, ptr %20, align 4, !tbaa !8
  call void @llvm.lifetime.start.p0(i64 8, ptr %21) #14
  %25 = load ptr, ptr %14, align 8, !tbaa !42
  call void @Cec_ManCecSetDefaultParams(ptr noundef %25)
  call void (...) @Extra_UtilGetoptReset()
  br label %26

26:                                               ; preds = %40, %3
  %27 = load i32, ptr %6, align 4, !tbaa !8
  %28 = load ptr, ptr %7, align 8, !tbaa !10
  %29 = call i32 @Extra_UtilGetopt(i32 noundef %27, ptr noundef %28, ptr noundef @.str.83)
  store i32 %29, ptr %18, align 4, !tbaa !8
  %30 = icmp ne i32 %29, -1
  br i1 %30, label %31, label %41

31:                                               ; preds = %26
  %32 = load i32, ptr %18, align 4, !tbaa !8
  switch i32 %32, label %39 [
    i32 118, label %33
    i32 104, label %38
  ]

33:                                               ; preds = %31
  %34 = load ptr, ptr %14, align 8, !tbaa !42
  %35 = getelementptr inbounds nuw %struct.Cec_ParCec_t_, ptr %34, i32 0, i32 7
  %36 = load i32, ptr %35, align 4, !tbaa !44
  %37 = xor i32 %36, 1
  store i32 %37, ptr %35, align 4, !tbaa !44
  br label %40

38:                                               ; preds = %31
  br label %165

39:                                               ; preds = %31
  br label %165

40:                                               ; preds = %33
  br label %26, !llvm.loop !46

41:                                               ; preds = %26
  %42 = load ptr, ptr %8, align 8, !tbaa !12
  %43 = icmp eq ptr %42, null
  br i1 %43, label %44, label %45

44:                                               ; preds = %41
  call void (i32, ptr, ...) @Abc_Print(i32 noundef 1, ptr noundef @.str.91)
  store i32 0, ptr %4, align 4
  store i32 1, ptr %22, align 4
  br label %171

45:                                               ; preds = %41
  %46 = load ptr, ptr %7, align 8, !tbaa !10
  %47 = load i32, ptr @globalUtilOptind, align 4, !tbaa !8
  %48 = sext i32 %47 to i64
  %49 = getelementptr inbounds ptr, ptr %46, i64 %48
  store ptr %49, ptr %17, align 8, !tbaa !10
  %50 = load i32, ptr %6, align 4, !tbaa !8
  %51 = load i32, ptr @globalUtilOptind, align 4, !tbaa !8
  %52 = sub nsw i32 %50, %51
  store i32 %52, ptr %19, align 4, !tbaa !8
  %53 = load i32, ptr %19, align 4, !tbaa !8
  %54 = icmp ne i32 %53, 1
  br i1 %54, label %55, label %65

55:                                               ; preds = %45
  %56 = load ptr, ptr %8, align 8, !tbaa !12
  %57 = getelementptr inbounds nuw %struct.Cba_Man_t_, ptr %56, i32 0, i32 1
  %58 = load ptr, ptr %57, align 8, !tbaa !47
  %59 = icmp eq ptr %58, null
  br i1 %59, label %60, label %61

60:                                               ; preds = %55
  call void (i32, ptr, ...) @Abc_Print(i32 noundef -1, ptr noundef @.str.92)
  store i32 1, ptr %4, align 4
  store i32 1, ptr %22, align 4
  br label %171

61:                                               ; preds = %55
  %62 = load ptr, ptr %8, align 8, !tbaa !12
  %63 = getelementptr inbounds nuw %struct.Cba_Man_t_, ptr %62, i32 0, i32 1
  %64 = load ptr, ptr %63, align 8, !tbaa !47
  store ptr %64, ptr %15, align 8, !tbaa !14
  br label %69

65:                                               ; preds = %45
  %66 = load ptr, ptr %17, align 8, !tbaa !10
  %67 = getelementptr inbounds ptr, ptr %66, i64 0
  %68 = load ptr, ptr %67, align 8, !tbaa !14
  store ptr %68, ptr %15, align 8, !tbaa !14
  br label %69

69:                                               ; preds = %65, %61
  %70 = load ptr, ptr %15, align 8, !tbaa !14
  store ptr %70, ptr %16, align 8, !tbaa !14
  br label %71

71:                                               ; preds = %83, %69
  %72 = load ptr, ptr %16, align 8, !tbaa !14
  %73 = load i8, ptr %72, align 1, !tbaa !53
  %74 = icmp ne i8 %73, 0
  br i1 %74, label %75, label %86

75:                                               ; preds = %71
  %76 = load ptr, ptr %16, align 8, !tbaa !14
  %77 = load i8, ptr %76, align 1, !tbaa !53
  %78 = sext i8 %77 to i32
  %79 = icmp eq i32 %78, 62
  br i1 %79, label %80, label %82

80:                                               ; preds = %75
  %81 = load ptr, ptr %16, align 8, !tbaa !14
  store i8 92, ptr %81, align 1, !tbaa !53
  br label %82

82:                                               ; preds = %80, %75
  br label %83

83:                                               ; preds = %82
  %84 = load ptr, ptr %16, align 8, !tbaa !14
  %85 = getelementptr inbounds nuw i8, ptr %84, i32 1
  store ptr %85, ptr %16, align 8, !tbaa !14
  br label %71, !llvm.loop !54

86:                                               ; preds = %71
  %87 = load ptr, ptr %15, align 8, !tbaa !14
  %88 = call noalias ptr @fopen(ptr noundef %87, ptr noundef @.str.12)
  store ptr %88, ptr %21, align 8, !tbaa !18
  %89 = icmp eq ptr %88, null
  br i1 %89, label %90, label %98

90:                                               ; preds = %86
  %91 = load ptr, ptr %15, align 8, !tbaa !14
  call void (i32, ptr, ...) @Abc_Print(i32 noundef -1, ptr noundef @.str.13, ptr noundef %91)
  %92 = load ptr, ptr %15, align 8, !tbaa !14
  %93 = call ptr @Extra_FileGetSimilarName(ptr noundef %92, ptr noundef @.str.14, ptr noundef @.str.15, ptr noundef null, ptr noundef null, ptr noundef null)
  store ptr %93, ptr %15, align 8, !tbaa !14
  %94 = icmp ne ptr %93, null
  br i1 %94, label %95, label %97

95:                                               ; preds = %90
  %96 = load ptr, ptr %15, align 8, !tbaa !14
  call void (i32, ptr, ...) @Abc_Print(i32 noundef 1, ptr noundef @.str.18, ptr noundef %96)
  br label %97

97:                                               ; preds = %95, %90
  call void (i32, ptr, ...) @Abc_Print(i32 noundef 1, ptr noundef @.str.19)
  store i32 1, ptr %4, align 4
  store i32 1, ptr %22, align 4
  br label %171

98:                                               ; preds = %86
  %99 = load ptr, ptr %21, align 8, !tbaa !18
  %100 = call i32 @fclose(ptr noundef %99)
  %101 = load ptr, ptr %8, align 8, !tbaa !12
  %102 = call ptr @Cba_ManBlast(ptr noundef %101, i32 noundef 0, i32 noundef 0, i32 noundef 0)
  store ptr %102, ptr %10, align 8, !tbaa !22
  %103 = load ptr, ptr %10, align 8, !tbaa !22
  %104 = icmp eq ptr %103, null
  br i1 %104, label %105, label %106

105:                                              ; preds = %98
  call void (i32, ptr, ...) @Abc_Print(i32 noundef -1, ptr noundef @.str.93)
  store i32 0, ptr %4, align 4
  store i32 1, ptr %22, align 4
  br label %171

106:                                              ; preds = %98
  %107 = load ptr, ptr %15, align 8, !tbaa !14
  %108 = call ptr @Extra_FileNameExtension(ptr noundef %107)
  %109 = call i32 @strcmp(ptr noundef %108, ptr noundef @.str.20) #15
  %110 = icmp ne i32 %109, 0
  br i1 %110, label %114, label %111

111:                                              ; preds = %106
  %112 = load ptr, ptr %15, align 8, !tbaa !14
  %113 = call ptr @Cba_ManReadBlif(ptr noundef %112)
  store ptr %113, ptr %9, align 8, !tbaa !12
  br label %133

114:                                              ; preds = %106
  %115 = load ptr, ptr %15, align 8, !tbaa !14
  %116 = call ptr @Extra_FileNameExtension(ptr noundef %115)
  %117 = call i32 @strcmp(ptr noundef %116, ptr noundef @.str.21) #15
  %118 = icmp ne i32 %117, 0
  br i1 %118, label %122, label %119

119:                                              ; preds = %114
  %120 = load ptr, ptr %15, align 8, !tbaa !14
  %121 = call ptr @Cba_ManReadVerilog(ptr noundef %120)
  store ptr %121, ptr %9, align 8, !tbaa !12
  br label %132

122:                                              ; preds = %114
  %123 = load ptr, ptr %15, align 8, !tbaa !14
  %124 = call ptr @Extra_FileNameExtension(ptr noundef %123)
  %125 = call i32 @strcmp(ptr noundef %124, ptr noundef @.str.23) #15
  %126 = icmp ne i32 %125, 0
  br i1 %126, label %130, label %127

127:                                              ; preds = %122
  %128 = load ptr, ptr %15, align 8, !tbaa !14
  %129 = call ptr @Cba_ManReadCba(ptr noundef %128)
  store ptr %129, ptr %9, align 8, !tbaa !12
  br label %131

130:                                              ; preds = %122
  br label %131

131:                                              ; preds = %130, %127
  br label %132

132:                                              ; preds = %131, %119
  br label %133

133:                                              ; preds = %132, %111
  %134 = load ptr, ptr %9, align 8, !tbaa !12
  %135 = call ptr @Cba_ManBlast(ptr noundef %134, i32 noundef 0, i32 noundef 0, i32 noundef 0)
  store ptr %135, ptr %11, align 8, !tbaa !22
  %136 = load ptr, ptr %9, align 8, !tbaa !12
  call void @Cba_ManFree(ptr noundef %136)
  %137 = load ptr, ptr %11, align 8, !tbaa !22
  %138 = icmp eq ptr %137, null
  br i1 %138, label %139, label %141

139:                                              ; preds = %133
  %140 = load ptr, ptr %10, align 8, !tbaa !22
  call void @Gia_ManStop(ptr noundef %140)
  call void (i32, ptr, ...) @Abc_Print(i32 noundef -1, ptr noundef @.str.94)
  store i32 0, ptr %4, align 4
  store i32 1, ptr %22, align 4
  br label %171

141:                                              ; preds = %133
  %142 = load ptr, ptr %10, align 8, !tbaa !22
  %143 = load ptr, ptr %11, align 8, !tbaa !22
  %144 = load ptr, ptr %14, align 8, !tbaa !42
  %145 = getelementptr inbounds nuw %struct.Cec_ParCec_t_, ptr %144, i32 0, i32 7
  %146 = load i32, ptr %145, align 4, !tbaa !44
  %147 = call ptr @Gia_ManMiter(ptr noundef %142, ptr noundef %143, i32 noundef 0, i32 noundef 1, i32 noundef 0, i32 noundef 0, i32 noundef %146)
  store ptr %147, ptr %12, align 8, !tbaa !22
  %148 = load ptr, ptr %12, align 8, !tbaa !22
  %149 = icmp ne ptr %148, null
  br i1 %149, label %150, label %162

150:                                              ; preds = %141
  %151 = load i32, ptr %20, align 4, !tbaa !8
  %152 = icmp ne i32 %151, 0
  br i1 %152, label %153, label %155

153:                                              ; preds = %150
  call void (i32, ptr, ...) @Abc_Print(i32 noundef 0, ptr noundef @.str.95, ptr noundef @.str.96)
  %154 = load ptr, ptr %12, align 8, !tbaa !22
  call void @Gia_AigerWrite(ptr noundef %154, ptr noundef @.str.96, i32 noundef 0, i32 noundef 0, i32 noundef 0)
  br label %155

155:                                              ; preds = %153, %150
  %156 = load ptr, ptr %12, align 8, !tbaa !22
  %157 = load ptr, ptr %14, align 8, !tbaa !42
  %158 = call i32 @Cec_ManVerify(ptr noundef %156, ptr noundef %157)
  %159 = load ptr, ptr %5, align 8, !tbaa !3
  %160 = getelementptr inbounds nuw %struct.Abc_Frame_t_, ptr %159, i32 0, i32 57
  store i32 %158, ptr %160, align 8, !tbaa !55
  %161 = load ptr, ptr %12, align 8, !tbaa !22
  call void @Gia_ManStop(ptr noundef %161)
  br label %162

162:                                              ; preds = %155, %141
  %163 = load ptr, ptr %10, align 8, !tbaa !22
  call void @Gia_ManStop(ptr noundef %163)
  %164 = load ptr, ptr %11, align 8, !tbaa !22
  call void @Gia_ManStop(ptr noundef %164)
  store i32 0, ptr %4, align 4
  store i32 1, ptr %22, align 4
  br label %171

165:                                              ; preds = %39, %38
  call void (i32, ptr, ...) @Abc_Print(i32 noundef -2, ptr noundef @.str.97)
  call void (i32, ptr, ...) @Abc_Print(i32 noundef -2, ptr noundef @.str.98)
  %166 = load ptr, ptr %14, align 8, !tbaa !42
  %167 = getelementptr inbounds nuw %struct.Cec_ParCec_t_, ptr %166, i32 0, i32 7
  %168 = load i32, ptr %167, align 4, !tbaa !44
  %169 = icmp ne i32 %168, 0
  %170 = select i1 %169, ptr @.str.27, ptr @.str.28
  call void (i32, ptr, ...) @Abc_Print(i32 noundef -2, ptr noundef @.str.30, ptr noundef %170)
  call void (i32, ptr, ...) @Abc_Print(i32 noundef -2, ptr noundef @.str.31)
  store i32 1, ptr %4, align 4
  store i32 1, ptr %22, align 4
  br label %171

171:                                              ; preds = %165, %162, %139, %105, %97, %60, %44
  call void @llvm.lifetime.end.p0(i64 8, ptr %21) #14
  call void @llvm.lifetime.end.p0(i64 4, ptr %20) #14
  call void @llvm.lifetime.end.p0(i64 4, ptr %19) #14
  call void @llvm.lifetime.end.p0(i64 4, ptr %18) #14
  call void @llvm.lifetime.end.p0(i64 8, ptr %17) #14
  call void @llvm.lifetime.end.p0(i64 8, ptr %16) #14
  call void @llvm.lifetime.end.p0(i64 8, ptr %15) #14
  call void @llvm.lifetime.end.p0(i64 8, ptr %14) #14
  call void @llvm.lifetime.end.p0(i64 36, ptr %13) #14
  call void @llvm.lifetime.end.p0(i64 8, ptr %12) #14
  call void @llvm.lifetime.end.p0(i64 8, ptr %11) #14
  call void @llvm.lifetime.end.p0(i64 8, ptr %10) #14
  call void @llvm.lifetime.end.p0(i64 8, ptr %9) #14
  call void @llvm.lifetime.end.p0(i64 8, ptr %8) #14
  %172 = load i32, ptr %4, align 4
  ret i32 %172
}