; Function Attrs: nounwind uwtable
define internal range(i32 0, 2) i32 @Cba_CommandCec(ptr noundef captures(none) %0, i32 noundef %1, ptr noundef %2) #0 {
  %4 = alloca %struct.Cec_ParCec_t_, align 4
  %5 = getelementptr i8, ptr %0, i64 536
  %.val = load ptr, ptr %5, align 8, !tbaa !63
  call void @llvm.lifetime.start.p0(i64 36, ptr nonnull %4) #19
  call void @Cec_ManCecSetDefaultParams(ptr noundef nonnull %4) #19
  call void (...) @Extra_UtilGetoptReset() #19
  %6 = getelementptr inbounds nuw i8, ptr %4, i64 28
  br label %7

7:                                                ; preds = %9, %3
  %8 = call i32 @Extra_UtilGetopt(i32 noundef %1, ptr noundef %2, ptr noundef nonnull @.str.83) #19
  switch i32 %8, label %72 [
    i32 -1, label %12
    i32 118, label %9
  ]

9:                                                ; preds = %7
  %10 = load i32, ptr %6, align 4, !tbaa !86
  %11 = xor i32 %10, 1
  store i32 %11, ptr %6, align 4, !tbaa !86
  br label %7, !llvm.loop !88

12:                                               ; preds = %7
  %13 = icmp eq ptr %.val, null
  br i1 %13, label %14, label %15

14:                                               ; preds = %12
  call void (i32, ptr, ...) @Abc_Print(i32 noundef 1, ptr noundef nonnull @.str.91)
  br label %75

15:                                               ; preds = %12
  %16 = load i32, ptr @globalUtilOptind, align 4, !tbaa !5
  %17 = sub nsw i32 %1, %16
  %.not60 = icmp eq i32 %17, 1
  br i1 %.not60, label %23, label %18

18:                                               ; preds = %15
  %19 = getelementptr inbounds nuw i8, ptr %.val, i64 8
  %20 = load ptr, ptr %19, align 8, !tbaa !12
  %21 = icmp eq ptr %20, null
  br i1 %21, label %22, label %27

22:                                               ; preds = %18
  call void (i32, ptr, ...) @Abc_Print(i32 noundef -1, ptr noundef nonnull @.str.92)
  br label %75

23:                                               ; preds = %15
  %24 = sext i32 %16 to i64
  %25 = getelementptr inbounds ptr, ptr %2, i64 %24
  %26 = load ptr, ptr %25, align 8, !tbaa !9
  br label %27

27:                                               ; preds = %18, %23
  %.049 = phi ptr [ %26, %23 ], [ %20, %18 ]
  br label %28

28:                                               ; preds = %31, %27
  %.050 = phi ptr [ %.049, %27 ], [ %32, %31 ]
  %29 = load i8, ptr %.050, align 1, !tbaa !36
  switch i8 %29, label %31 [
    i8 0, label %33
    i8 62, label %30
  ]

30:                                               ; preds = %28
  store i8 92, ptr %.050, align 1, !tbaa !36
  br label %31

31:                                               ; preds = %28, %30
  %32 = getelementptr inbounds nuw i8, ptr %.050, i64 1
  br label %28, !llvm.loop !89

33:                                               ; preds = %28
  %34 = call noalias ptr @fopen(ptr noundef %.049, ptr noundef nonnull @.str.12)
  %35 = icmp eq ptr %34, null
  br i1 %35, label %36, label %40

36:                                               ; preds = %33
  call void (i32, ptr, ...) @Abc_Print(i32 noundef -1, ptr noundef nonnull @.str.13, ptr noundef %.049)
  %37 = call ptr @Extra_FileGetSimilarName(ptr noundef %.049, ptr noundef nonnull @.str.14, ptr noundef nonnull @.str.15, ptr noundef null, ptr noundef null, ptr noundef null) #19
  %.not66 = icmp eq ptr %37, null
  br i1 %.not66, label %39, label %38

38:                                               ; preds = %36
  call void (i32, ptr, ...) @Abc_Print(i32 noundef 1, ptr noundef nonnull @.str.18, ptr noundef nonnull %37)
  br label %39

39:                                               ; preds = %38, %36
  call void (i32, ptr, ...) @Abc_Print(i32 noundef 1, ptr noundef nonnull @.str.19)
  br label %75

40:                                               ; preds = %33
  %41 = call i32 @fclose(ptr noundef nonnull %34)
  %42 = call ptr @Cba_ManBlast(ptr noundef nonnull %.val, i32 noundef 0, i32 noundef 0, i32 noundef 0) #19
  %43 = icmp eq ptr %42, null
  br i1 %43, label %44, label %45

44:                                               ; preds = %40
  call void (i32, ptr, ...) @Abc_Print(i32 noundef -1, ptr noundef nonnull @.str.93)
  br label %75

45:                                               ; preds = %40
  %46 = call ptr @Extra_FileNameExtension(ptr noundef %.049) #19
  %47 = call i32 @strcmp(ptr noundef nonnull dereferenceable(1) %46, ptr noundef nonnull dereferenceable(5) @.str.20) #20
  %.not62 = icmp eq i32 %47, 0
  br i1 %.not62, label %48, label %sub_0

48:                                               ; preds = %45
  %49 = call ptr @Cba_ManReadBlif(ptr noundef %.049) #19
  br label %61

sub_0:                                            ; preds = %45
  %50 = call ptr @Extra_FileNameExtension(ptr noundef %.049) #19
  %51 = load i8, ptr %50, align 1
  %.not = icmp eq i8 %51, 118
  br i1 %.not, label %.tail, label %.tail.thread

.tail:                                            ; preds = %sub_0
  %52 = getelementptr inbounds nuw i8, ptr %50, i64 1
  %53 = load i8, ptr %52, align 1
  %54 = icmp eq i8 %53, 0
  br i1 %54, label %55, label %.tail.thread

55:                                               ; preds = %.tail
  %56 = call ptr @Cba_ManReadVerilog(ptr noundef %.049) #19
  br label %61

.tail.thread:                                     ; preds = %sub_0, %.tail
  %57 = call ptr @Extra_FileNameExtension(ptr noundef %.049) #19
  %58 = call i32 @strcmp(ptr noundef nonnull dereferenceable(1) %57, ptr noundef nonnull dereferenceable(4) @.str.23) #20
  %.not64 = icmp eq i32 %58, 0
  br i1 %.not64, label %59, label %61

59:                                               ; preds = %.tail.thread
  %60 = call ptr @Cba_ManReadCba(ptr noundef %.049) #19
  br label %61

61:                                               ; preds = %55, %.tail.thread, %59, %48
  %.048 = phi ptr [ undef, %.tail.thread ], [ %60, %59 ], [ %56, %55 ], [ %49, %48 ]
  %62 = call ptr @Cba_ManBlast(ptr noundef %.048, i32 noundef 0, i32 noundef 0, i32 noundef 0) #19
  call fastcc void @Cba_ManFree(ptr noundef %.048)
  %63 = icmp eq ptr %62, null
  br i1 %63, label %64, label %65

64:                                               ; preds = %61
  call void @Gia_ManStop(ptr noundef nonnull %42) #19
  call void (i32, ptr, ...) @Abc_Print(i32 noundef -1, ptr noundef nonnull @.str.94)
  br label %75

65:                                               ; preds = %61
  %66 = load i32, ptr %6, align 4, !tbaa !86
  %67 = call ptr @Gia_ManMiter(ptr noundef nonnull %42, ptr noundef nonnull %62, i32 noundef 0, i32 noundef 1, i32 noundef 0, i32 noundef 0, i32 noundef %66) #19
  %.not65 = icmp eq ptr %67, null
  br i1 %.not65, label %71, label %68

68:                                               ; preds = %65
  %69 = call i32 @Cec_ManVerify(ptr noundef nonnull %67, ptr noundef nonnull %4) #19
  %70 = getelementptr inbounds nuw i8, ptr %0, i64 400
  store i32 %69, ptr %70, align 8, !tbaa !90
  call void @Gia_ManStop(ptr noundef nonnull %67) #19
  br label %71

71:                                               ; preds = %68, %65
  call void @Gia_ManStop(ptr noundef nonnull %42) #19
  call void @Gia_ManStop(ptr noundef nonnull %62) #19
  br label %75

72:                                               ; preds = %7
  call void (i32, ptr, ...) @Abc_Print(i32 noundef -2, ptr noundef nonnull @.str.97)
  call void (i32, ptr, ...) @Abc_Print(i32 noundef -2, ptr noundef nonnull @.str.98)
  %73 = load i32, ptr %6, align 4, !tbaa !86
  %.not67 = icmp eq i32 %73, 0
  %74 = select i1 %.not67, ptr @.str.28, ptr @.str.27
  call void (i32, ptr, ...) @Abc_Print(i32 noundef -2, ptr noundef nonnull @.str.30, ptr noundef nonnull %74)
  call void (i32, ptr, ...) @Abc_Print(i32 noundef -2, ptr noundef nonnull @.str.31)
  br label %75

75:                                               ; preds = %72, %71, %64, %44, %39, %22, %14
  %.0 = phi i32 [ 1, %72 ], [ 0, %14 ], [ 1, %22 ], [ 1, %39 ], [ 0, %44 ], [ 0, %64 ], [ 0, %71 ]
  call void @llvm.lifetime.end.p0(i64 36, ptr nonnull %4) #19
  ret i32 %.0
}